target datalayout = "e-m:e-p270:32:32-p271:32:32-p272:64:64-i64:64-i128:128-f80:128-n8:16:32:64-S128"
target triple = "x86_64-unknown-linux-gnu"

%class.btGenericMemoryPool = type { ptr, ptr, ptr, i64, i64, i64, i64 }

; Function Attrs: mustprogress uwtable
define dso_local void @_ZN19btGenericMemoryPool8end_poolEv(ptr noundef nonnull align 8 dereferenceable(56) %this) #2 align 2 {
entry:
  %this.addr = alloca ptr, align 8
  store ptr %this, ptr %this.addr, align 8
  %this1 = load ptr, ptr %this.addr, align 8
  %m_pool = getelementptr inbounds %class.btGenericMemoryPool, ptr %this1, i32 0, i32 0
  %0 = load ptr, ptr %m_pool, align 8
  call void @_Z21btAlignedFreeInternalPv(ptr noundef %0)
  %m_free_nodes = getelementptr inbounds %class.btGenericMemoryPool, ptr %this1, i32 0, i32 1
  %1 = load ptr, ptr %m_free_nodes, align 8
  call void @_Z21btAlignedFreeInternalPv(ptr noundef %1)
  %m_allocated_sizes = getelementptr inbounds %class.btGenericMemoryPool, ptr %this1, i32 0, i32 2
  %2 = load ptr, ptr %m_allocated_sizes, align 8
  call void @_Z21btAlignedFreeInternalPv(ptr noundef %2)
  %m_allocated_count = getelementptr inbounds %class.btGenericMemoryPool, ptr %this1, i32 0, i32 3
  store i64 0, ptr %m_allocated_count, align 8
  %m_free_nodes_count = getelementptr inbounds %class.btGenericMemoryPool, ptr %this1, i32 0, i32 4
  store i64 0, ptr %m_free_nodes_count, align 8
  ret void
}