; Function Attrs: mustprogress uwtable
define dso_local void @_ZN19btGenericMemoryPool8end_poolEv(ptr nocapture noundef nonnull align 8 dereferenceable(56) %this) local_unnamed_addr #2 align 2 {
entry:
  %0 = load ptr, ptr %this, align 8
  tail call void @_Z21btAlignedFreeInternalPv(ptr noundef %0)
  %m_free_nodes = getelementptr inbounds i8, ptr %this, i64 8
  %1 = load ptr, ptr %m_free_nodes, align 8
  tail call void @_Z21btAlignedFreeInternalPv(ptr noundef %1)
  %m_allocated_sizes = getelementptr inbounds i8, ptr %this, i64 16
  %2 = load ptr, ptr %m_allocated_sizes, align 8
  tail call void @_Z21btAlignedFreeInternalPv(ptr noundef %2)
  %m_allocated_count = getelementptr inbounds i8, ptr %this, i64 24
  tail call void @llvm.memset.p0.i64(ptr noundef nonnull align 8 dereferenceable(16) %m_allocated_count, i8 0, i64 16, i1 false)
  ret void
}